target datalayout = "e-m:e-p270:32:32-p271:32:32-p272:64:64-i64:64-i128:128-f80:128-n8:16:32:64-S128"
target triple = "x86_64-pc-linux-gnu"

@PyExc_SystemError = external global ptr, align 8
@.str.8 = private unnamed_addr constant [26 x i8] c"Unmatched paren in format\00", align 1

; Function Attrs: nounwind uwtable
define internal i32 @check_end(ptr noundef %0, i8 noundef signext %1) #0 {
  %3 = alloca i32, align 4
  %4 = alloca ptr, align 8
  %5 = alloca i8, align 1
  %6 = alloca ptr, align 8
  %7 = alloca i32, align 4
  store ptr %0, ptr %4, align 8, !tbaa !38
  store i8 %1, ptr %5, align 1, !tbaa !35
  call void @llvm.lifetime.start.p0(i64 8, ptr %6) #7
  %8 = load ptr, ptr %4, align 8, !tbaa !38
  %9 = load ptr, ptr %8, align 8, !tbaa !27
  store ptr %9, ptr %6, align 8, !tbaa !27
  br label %10

10:                                               ; preds = %39, %2
  %11 = load ptr, ptr %6, align 8, !tbaa !27
  %12 = load i8, ptr %11, align 1, !tbaa !35
  %13 = sext i8 %12 to i32
  %14 = load i8, ptr %5, align 1, !tbaa !35
  %15 = sext i8 %14 to i32
  %16 = icmp ne i32 %13, %15
  br i1 %16, label %17, label %42

17:                                               ; preds = %10
  %18 = load ptr, ptr %6, align 8, !tbaa !27
  %19 = load i8, ptr %18, align 1, !tbaa !35
  %20 = sext i8 %19 to i32
  %21 = icmp ne i32 %20, 32
  br i1 %21, label %22, label %39

22:                                               ; preds = %17
  %23 = load ptr, ptr %6, align 8, !tbaa !27
  %24 = load i8, ptr %23, align 1, !tbaa !35
  %25 = sext i8 %24 to i32
  %26 = icmp ne i32 %25, 9
  br i1 %26, label %27, label %39

27:                                               ; preds = %22
  %28 = load ptr, ptr %6, align 8, !tbaa !27
  %29 = load i8, ptr %28, align 1, !tbaa !35
  %30 = sext i8 %29 to i32
  %31 = icmp ne i32 %30, 44
  br i1 %31, label %32, label %39

32:                                               ; preds = %27
  %33 = load ptr, ptr %6, align 8, !tbaa !27
  %34 = load i8, ptr %33, align 1, !tbaa !35
  %35 = sext i8 %34 to i32
  %36 = icmp ne i32 %35, 58
  br i1 %36, label %37, label %39

37:                                               ; preds = %32
  %38 = load ptr, ptr @PyExc_SystemError, align 8, !tbaa !4
  call void @PyErr_SetString(ptr noundef %38, ptr noundef @.str.8)
  store i32 0, ptr %3, align 4
  store i32 1, ptr %7, align 4
  br label %51

39:                                               ; preds = %32, %27, %22, %17
  %40 = load ptr, ptr %6, align 8, !tbaa !27
  %41 = getelementptr i8, ptr %40, i32 1
  store ptr %41, ptr %6, align 8, !tbaa !27
  br label %10, !llvm.loop !55

42:                                               ; preds = %10
  %43 = load i8, ptr %5, align 1, !tbaa !35
  %44 = icmp ne i8 %43, 0
  br i1 %44, label %45, label %48

45:                                               ; preds = %42
  %46 = load ptr, ptr %6, align 8, !tbaa !27
  %47 = getelementptr i8, ptr %46, i32 1
  store ptr %47, ptr %6, align 8, !tbaa !27
  br label %48

48:                                               ; preds = %45, %42
  %49 = load ptr, ptr %6, align 8, !tbaa !27
  %50 = load ptr, ptr %4, align 8, !tbaa !38
  store ptr %49, ptr %50, align 8, !tbaa !27
  store i32 1, ptr %3, align 4
  store i32 1, ptr %7, align 4
  br label %51

51:                                               ; preds = %48, %37
  call void @llvm.lifetime.end.p0(i64 8, ptr %6) #7
  %52 = load i32, ptr %3, align 4
  ret i32 %52
}