; Function Attrs: nounwind uwtable
define internal fastcc range(i32 0, 2) i32 @check_end(ptr noundef nonnull captures(none) %0, i8 noundef signext range(i8 0, 126) %1) unnamed_addr #0 {
  %3 = load ptr, ptr %0, align 8, !tbaa !26
  %4 = load i8, ptr %3, align 1, !tbaa !29
  %.not20 = icmp eq i8 %4, %1
  br i1 %.not20, label %._crit_edge, label %.lr.ph

.lr.ph:                                           ; preds = %2, %8
  %5 = phi i8 [ %10, %8 ], [ %4, %2 ]
  %.021 = phi ptr [ %9, %8 ], [ %3, %2 ]
  switch i8 %5, label %6 [
    i8 32, label %8
    i8 9, label %8
    i8 44, label %8
    i8 58, label %8
  ]

6:                                                ; preds = %.lr.ph
  %7 = load ptr, ptr @PyExc_SystemError, align 8, !tbaa !23
  tail call void @PyErr_SetString(ptr noundef %7, ptr noundef nonnull @.str.8) #7
  br label %11

8:                                                ; preds = %.lr.ph, %.lr.ph, %.lr.ph, %.lr.ph
  %9 = getelementptr i8, ptr %.021, i64 1
  %10 = load i8, ptr %9, align 1, !tbaa !29
  %.not = icmp eq i8 %10, %1
  br i1 %.not, label %._crit_edge, label %.lr.ph, !llvm.loop !30

._crit_edge:                                      ; preds = %8, %2
  %.0.lcssa = phi ptr [ %3, %2 ], [ %9, %8 ]
  %.not14 = icmp ne i8 %1, 0
  %spec.select.idx = zext i1 %.not14 to i64
  %spec.select = getelementptr i8, ptr %.0.lcssa, i64 %spec.select.idx
  store ptr %spec.select, ptr %0, align 8, !tbaa !26
  br label %11

11:                                               ; preds = %._crit_edge, %6
  %.012 = phi i32 [ 0, %6 ], [ 1, %._crit_edge ]
  ret i32 %.012
}